; Function Attrs: mustprogress nounwind uwtable
define dso_local noundef ptr @_ZN4llvm9DIBuilder16createEnumeratorENS_9StringRefEmb(ptr nocapture noundef nonnull readonly align 8 dereferenceable(416) %0, ptr %1, i64 %2, i64 noundef %3, i1 noundef zeroext %4) local_unnamed_addr #0 align 2 {
  %6 = alloca %"class.llvm::APInt", align 8
  %7 = getelementptr inbounds nuw i8, ptr %0, i64 8
  %8 = load ptr, ptr %7, align 8
  %9 = getelementptr inbounds nuw i8, ptr %6, i64 8
  store i32 64, ptr %9, align 8
  store i64 %3, ptr %6, align 8
  %10 = icmp eq i64 %2, 0
  br i1 %10, label %_ZN4llvm12DIEnumerator3getERNS_11LLVMContextENS_5APIntEbNS_9StringRefE.exit, label %11

11:                                               ; preds = %5
  %12 = tail call noundef ptr @_ZN4llvm8MDString3getERNS_11LLVMContextENS_9StringRefE(ptr noundef nonnull align 8 dereferenceable(8) %8, ptr %1, i64 %2) #13
  br label %_ZN4llvm12DIEnumerator3getERNS_11LLVMContextENS_5APIntEbNS_9StringRefE.exit

_ZN4llvm12DIEnumerator3getERNS_11LLVMContextENS_5APIntEbNS_9StringRefE.exit: ; preds = %5, %11
  %.0.i.i.i = phi ptr [ %12, %11 ], [ null, %5 ]
  %13 = call noundef ptr @_ZN4llvm12DIEnumerator7getImplERNS_11LLVMContextERKNS_5APIntEbPNS_8MDStringENS_8Metadata11StorageTypeEb(ptr noundef nonnull align 8 dereferenceable(8) %8, ptr noundef nonnull align 8 dereferenceable(12) %6, i1 noundef zeroext %4, ptr noundef %.0.i.i.i, i32 noundef 0, i1 noundef zeroext true) #13
  %14 = load i32, ptr %9, align 8
  %15 = icmp ugt i32 %14, 64
  br i1 %15, label %16, label %_ZN4llvm5APIntD2Ev.exit

16:                                               ; preds = %_ZN4llvm12DIEnumerator3getERNS_11LLVMContextENS_5APIntEbNS_9StringRefE.exit
  %17 = load ptr, ptr %6, align 8
  %18 = icmp eq ptr %17, null
  br i1 %18, label %_ZN4llvm5APIntD2Ev.exit, label %19

19:                                               ; preds = %16
  call void @_ZdaPv(ptr noundef nonnull %17) #14
  br label %_ZN4llvm5APIntD2Ev.exit

_ZN4llvm5APIntD2Ev.exit:                          ; preds = %_ZN4llvm12DIEnumerator3getERNS_11LLVMContextENS_5APIntEbNS_9StringRefE.exit, %16, %19
  ret ptr %13
}